target datalayout = "e-m:e-p270:32:32-p271:32:32-p272:64:64-i64:64-i128:128-f80:128-n8:16:32:64-S128"
target triple = "x86_64-pc-linux-gnu"

%struct.CnvExtData = type { %struct.NewConverter, ptr, ptr, ptr, ptr, ptr, ptr, [1088 x i16], [64448 x i16], [262144 x i16], [65536 x i32], i32, i32, i32, i32, i16, i32, i32, i32, i32, i32, i32 }
%struct.NewConverter = type { ptr, ptr, ptr, ptr }
%struct.UCMTable = type { ptr, i32, i32, ptr, i32, i32, ptr, i32, i32, ptr, i8, i8, i8 }
%struct.UCMapping = type { i32, %union.anon, i8, i8, i8, i8 }
%union.anon = type { i32 }

; Function Attrs: nounwind uwtable
define internal i32 @getFromUBytesValue(ptr noundef %0, ptr noundef %1, ptr noundef %2) #0 {
  %4 = alloca i32, align 4
  %5 = alloca ptr, align 8
  %6 = alloca ptr, align 8
  %7 = alloca ptr, align 8
  %8 = alloca ptr, align 8
  %9 = alloca ptr, align 8
  %10 = alloca i32, align 4
  %11 = alloca i32, align 4
  %12 = alloca i32, align 4
  %13 = alloca i32, align 4
  store ptr %0, ptr %5, align 8, !tbaa !9
  store ptr %1, ptr %6, align 8, !tbaa !31
  store ptr %2, ptr %7, align 8, !tbaa !68
  call void @llvm.lifetime.start.p0(i64 8, ptr %8) #9
  call void @llvm.lifetime.start.p0(i64 8, ptr %9) #9
  call void @llvm.lifetime.start.p0(i64 4, ptr %10) #9
  call void @llvm.lifetime.start.p0(i64 4, ptr %11) #9
  call void @llvm.lifetime.start.p0(i64 4, ptr %12) #9
  %14 = load ptr, ptr %7, align 8, !tbaa !68
  %15 = getelementptr inbounds nuw %struct.UCMapping, ptr %14, i32 0, i32 4
  %16 = load i8, ptr %15, align 2, !tbaa !72
  %17 = sext i8 %16 to i32
  %18 = icmp eq i32 %17, 2
  br i1 %18, label %19, label %20

19:                                               ; preds = %3
  store i32 -2147483647, ptr %4, align 4
  store i32 1, ptr %13, align 4
  br label %202

20:                                               ; preds = %3
  %21 = load ptr, ptr %7, align 8, !tbaa !68
  %22 = getelementptr inbounds nuw %struct.UCMapping, ptr %21, i32 0, i32 3
  %23 = load i8, ptr %22, align 1, !tbaa !76
  %24 = sext i8 %23 to i32
  %25 = icmp sle i32 %24, 4
  br i1 %25, label %26, label %30

26:                                               ; preds = %20
  %27 = load ptr, ptr %7, align 8, !tbaa !68
  %28 = getelementptr inbounds nuw %struct.UCMapping, ptr %27, i32 0, i32 1
  %29 = getelementptr inbounds [4 x i8], ptr %28, i64 0, i64 0
  br label %39

30:                                               ; preds = %20
  %31 = load ptr, ptr %6, align 8, !tbaa !31
  %32 = getelementptr inbounds nuw %struct.UCMTable, ptr %31, i32 0, i32 6
  %33 = load ptr, ptr %32, align 8, !tbaa !77
  %34 = load ptr, ptr %7, align 8, !tbaa !68
  %35 = getelementptr inbounds nuw %struct.UCMapping, ptr %34, i32 0, i32 1
  %36 = load i32, ptr %35, align 4, !tbaa !45
  %37 = zext i32 %36 to i64
  %38 = getelementptr inbounds nuw i8, ptr %33, i64 %37
  br label %39

39:                                               ; preds = %30, %26
  %40 = phi ptr [ %29, %26 ], [ %38, %30 ]
  store ptr %40, ptr %8, align 8, !tbaa !28
  store i32 0, ptr %10, align 4, !tbaa !30
  %41 = load ptr, ptr %7, align 8, !tbaa !68
  %42 = getelementptr inbounds nuw %struct.UCMapping, ptr %41, i32 0, i32 3
  %43 = load i8, ptr %42, align 1, !tbaa !76
  %44 = sext i8 %43 to i32
  switch i32 %44, label %65 [
    i32 3, label %45
    i32 2, label %51
    i32 1, label %59
  ]

45:                                               ; preds = %39
  %46 = load ptr, ptr %8, align 8, !tbaa !28
  %47 = getelementptr inbounds nuw i8, ptr %46, i32 1
  store ptr %47, ptr %8, align 8, !tbaa !28
  %48 = load i8, ptr %46, align 1, !tbaa !45
  %49 = zext i8 %48 to i32
  %50 = shl i32 %49, 16
  store i32 %50, ptr %10, align 4, !tbaa !30
  br label %51

51:                                               ; preds = %39, %45
  %52 = load ptr, ptr %8, align 8, !tbaa !28
  %53 = getelementptr inbounds nuw i8, ptr %52, i32 1
  store ptr %53, ptr %8, align 8, !tbaa !28
  %54 = load i8, ptr %52, align 1, !tbaa !45
  %55 = zext i8 %54 to i32
  %56 = shl i32 %55, 8
  %57 = load i32, ptr %10, align 4, !tbaa !30
  %58 = or i32 %57, %56
  store i32 %58, ptr %10, align 4, !tbaa !30
  br label %59

59:                                               ; preds = %39, %51
  %60 = load ptr, ptr %8, align 8, !tbaa !28
  %61 = load i8, ptr %60, align 1, !tbaa !45
  %62 = zext i8 %61 to i32
  %63 = load i32, ptr %10, align 4, !tbaa !30
  %64 = or i32 %63, %62
  store i32 %64, ptr %10, align 4, !tbaa !30
  br label %87

65:                                               ; preds = %39
  %66 = load ptr, ptr %5, align 8, !tbaa !9
  %67 = getelementptr inbounds nuw %struct.CnvExtData, ptr %66, i32 0, i32 6
  %68 = load ptr, ptr %67, align 8, !tbaa !27
  %69 = call i32 @utm_countItems(ptr noundef %68)
  store i32 %69, ptr %10, align 4, !tbaa !30
  %70 = load ptr, ptr %5, align 8, !tbaa !9
  %71 = getelementptr inbounds nuw %struct.CnvExtData, ptr %70, i32 0, i32 6
  %72 = load ptr, ptr %71, align 8, !tbaa !27
  %73 = load ptr, ptr %7, align 8, !tbaa !68
  %74 = getelementptr inbounds nuw %struct.UCMapping, ptr %73, i32 0, i32 3
  %75 = load i8, ptr %74, align 1, !tbaa !76
  %76 = sext i8 %75 to i32
  %77 = call ptr @utm_allocN(ptr noundef %72, i32 noundef %76)
  store ptr %77, ptr %9, align 8, !tbaa !28
  br label %78

78:                                               ; preds = %65
  %79 = load ptr, ptr %9, align 8, !tbaa !28
  %80 = load ptr, ptr %8, align 8, !tbaa !28
  %81 = load ptr, ptr %7, align 8, !tbaa !68
  %82 = getelementptr inbounds nuw %struct.UCMapping, ptr %81, i32 0, i32 3
  %83 = load i8, ptr %82, align 1, !tbaa !76
  %84 = sext i8 %83 to i64
  call void @llvm.memcpy.p0.p0.i64(ptr align 1 %79, ptr align 1 %80, i64 %84, i1 false)
  br label %85

85:                                               ; preds = %78
  br label %86

86:                                               ; preds = %85
  br label %87

87:                                               ; preds = %86, %59
  %88 = load ptr, ptr %7, align 8, !tbaa !68
  %89 = getelementptr inbounds nuw %struct.UCMapping, ptr %88, i32 0, i32 3
  %90 = load i8, ptr %89, align 1, !tbaa !76
  %91 = sext i8 %90 to i32
  %92 = shl i32 %91, 24
  %93 = load i32, ptr %10, align 4, !tbaa !30
  %94 = or i32 %93, %92
  store i32 %94, ptr %10, align 4, !tbaa !30
  %95 = load ptr, ptr %7, align 8, !tbaa !68
  %96 = getelementptr inbounds nuw %struct.UCMapping, ptr %95, i32 0, i32 4
  %97 = load i8, ptr %96, align 2, !tbaa !72
  %98 = sext i8 %97 to i32
  %99 = icmp eq i32 %98, 0
  br i1 %99, label %100, label %103

100:                                              ; preds = %87
  %101 = load i32, ptr %10, align 4, !tbaa !30
  %102 = or i32 %101, -2147483648
  store i32 %102, ptr %10, align 4, !tbaa !30
  br label %113

103:                                              ; preds = %87
  %104 = load ptr, ptr %7, align 8, !tbaa !68
  %105 = getelementptr inbounds nuw %struct.UCMapping, ptr %104, i32 0, i32 4
  %106 = load i8, ptr %105, align 2, !tbaa !72
  %107 = sext i8 %106 to i32
  %108 = icmp eq i32 %107, 4
  br i1 %108, label %109, label %112

109:                                              ; preds = %103
  %110 = load i32, ptr %10, align 4, !tbaa !30
  %111 = or i32 %110, 1073741824
  store i32 %111, ptr %10, align 4, !tbaa !30
  br label %112

112:                                              ; preds = %109, %103
  br label %113

113:                                              ; preds = %112, %100
  %114 = load ptr, ptr %7, align 8, !tbaa !68
  %115 = getelementptr inbounds nuw %struct.UCMapping, ptr %114, i32 0, i32 2
  %116 = load i8, ptr %115, align 4, !tbaa !82
  %117 = sext i8 %116 to i32
  %118 = icmp eq i32 %117, 1
  br i1 %118, label %119, label %125

119:                                              ; preds = %113
  %120 = load ptr, ptr %7, align 8, !tbaa !68
  %121 = getelementptr inbounds nuw %struct.UCMapping, ptr %120, i32 0, i32 0
  %122 = load i32, ptr %121, align 4, !tbaa !83
  %123 = icmp ule i32 %122, 65535
  %124 = select i1 %123, i32 1, i32 2
  store i32 %124, ptr %11, align 4, !tbaa !30
  br label %155

125:                                              ; preds = %113
  %126 = load ptr, ptr %7, align 8, !tbaa !68
  %127 = getelementptr inbounds nuw %struct.UCMapping, ptr %126, i32 0, i32 2
  %128 = load i8, ptr %127, align 4, !tbaa !82
  %129 = sext i8 %128 to i32
  %130 = icmp eq i32 %129, 1
  br i1 %130, label %131, label %134

131:                                              ; preds = %125
  %132 = load ptr, ptr %7, align 8, !tbaa !68
  %133 = getelementptr inbounds nuw %struct.UCMapping, ptr %132, i32 0, i32 0
  br label %143

134:                                              ; preds = %125
  %135 = load ptr, ptr %6, align 8, !tbaa !31
  %136 = getelementptr inbounds nuw %struct.UCMTable, ptr %135, i32 0, i32 3
  %137 = load ptr, ptr %136, align 8, !tbaa !84
  %138 = load ptr, ptr %7, align 8, !tbaa !68
  %139 = getelementptr inbounds nuw %struct.UCMapping, ptr %138, i32 0, i32 0
  %140 = load i32, ptr %139, align 4, !tbaa !83
  %141 = sext i32 %140 to i64
  %142 = getelementptr inbounds i32, ptr %137, i64 %141
  br label %143

143:                                              ; preds = %134, %131
  %144 = phi ptr [ %133, %131 ], [ %142, %134 ]
  %145 = getelementptr inbounds i32, ptr %144, i64 0
  %146 = load i32, ptr %145, align 4, !tbaa !30
  %147 = icmp ule i32 %146, 65535
  %148 = select i1 %147, i32 1, i32 2
  %149 = load ptr, ptr %7, align 8, !tbaa !68
  %150 = getelementptr inbounds nuw %struct.UCMapping, ptr %149, i32 0, i32 2
  %151 = load i8, ptr %150, align 4, !tbaa !82
  %152 = sext i8 %151 to i32
  %153 = sub nsw i32 %152, 2
  %154 = add nsw i32 %148, %153
  store i32 %154, ptr %11, align 4, !tbaa !30
  br label %155

155:                                              ; preds = %143, %119
  %156 = load i32, ptr %11, align 4, !tbaa !30
  %157 = load ptr, ptr %5, align 8, !tbaa !9
  %158 = getelementptr inbounds nuw %struct.CnvExtData, ptr %157, i32 0, i32 19
  %159 = load i32, ptr %158, align 8, !tbaa !58
  %160 = icmp sgt i32 %156, %159
  br i1 %160, label %161, label %165

161:                                              ; preds = %155
  %162 = load i32, ptr %11, align 4, !tbaa !30
  %163 = load ptr, ptr %5, align 8, !tbaa !9
  %164 = getelementptr inbounds nuw %struct.CnvExtData, ptr %163, i32 0, i32 19
  store i32 %162, ptr %164, align 8, !tbaa !58
  br label %165

165:                                              ; preds = %161, %155
  %166 = load ptr, ptr %7, align 8, !tbaa !68
  %167 = getelementptr inbounds nuw %struct.UCMapping, ptr %166, i32 0, i32 3
  %168 = load i8, ptr %167, align 1, !tbaa !76
  %169 = sext i8 %168 to i32
  %170 = load ptr, ptr %5, align 8, !tbaa !9
  %171 = getelementptr inbounds nuw %struct.CnvExtData, ptr %170, i32 0, i32 17
  %172 = load i32, ptr %171, align 8, !tbaa !56
  %173 = icmp sgt i32 %169, %172
  br i1 %173, label %174, label %181

174:                                              ; preds = %165
  %175 = load ptr, ptr %7, align 8, !tbaa !68
  %176 = getelementptr inbounds nuw %struct.UCMapping, ptr %175, i32 0, i32 3
  %177 = load i8, ptr %176, align 1, !tbaa !76
  %178 = sext i8 %177 to i32
  %179 = load ptr, ptr %5, align 8, !tbaa !9
  %180 = getelementptr inbounds nuw %struct.CnvExtData, ptr %179, i32 0, i32 17
  store i32 %178, ptr %180, align 8, !tbaa !56
  br label %181

181:                                              ; preds = %174, %165
  %182 = load ptr, ptr %7, align 8, !tbaa !68
  %183 = getelementptr inbounds nuw %struct.UCMapping, ptr %182, i32 0, i32 3
  %184 = load i8, ptr %183, align 1, !tbaa !76
  %185 = sext i8 %184 to i32
  %186 = load i32, ptr %11, align 4, !tbaa !30
  %187 = sub nsw i32 %186, 1
  %188 = add nsw i32 %185, %187
  %189 = load i32, ptr %11, align 4, !tbaa !30
  %190 = sdiv i32 %188, %189
  store i32 %190, ptr %12, align 4, !tbaa !30
  %191 = load i32, ptr %12, align 4, !tbaa !30
  %192 = load ptr, ptr %5, align 8, !tbaa !9
  %193 = getelementptr inbounds nuw %struct.CnvExtData, ptr %192, i32 0, i32 18
  %194 = load i32, ptr %193, align 4, !tbaa !57
  %195 = icmp sgt i32 %191, %194
  br i1 %195, label %196, label %200

196:                                              ; preds = %181
  %197 = load i32, ptr %12, align 4, !tbaa !30
  %198 = load ptr, ptr %5, align 8, !tbaa !9
  %199 = getelementptr inbounds nuw %struct.CnvExtData, ptr %198, i32 0, i32 18
  store i32 %197, ptr %199, align 4, !tbaa !57
  br label %200

200:                                              ; preds = %196, %181
  %201 = load i32, ptr %10, align 4, !tbaa !30
  store i32 %201, ptr %4, align 4
  store i32 1, ptr %13, align 4
  br label %202

202:                                              ; preds = %200, %19
  call void @llvm.lifetime.end.p0(i64 4, ptr %12) #9
  call void @llvm.lifetime.end.p0(i64 4, ptr %11) #9
  call void @llvm.lifetime.end.p0(i64 4, ptr %10) #9
  call void @llvm.lifetime.end.p0(i64 8, ptr %9) #9
  call void @llvm.lifetime.end.p0(i64 8, ptr %8) #9
  %203 = load i32, ptr %4, align 4
  ret i32 %203
}