; Function Attrs: nounwind uwtable
define internal fastcc i32 @getFromUBytesValue(ptr noundef captures(none) %0, ptr noundef readonly captures(none) %1, ptr noundef readonly captures(none) %2) unnamed_addr #0 {
  %4 = getelementptr inbounds nuw i8, ptr %2, i64 10
  %5 = load i8, ptr %4, align 2, !tbaa !36
  %6 = icmp eq i8 %5, 2
  br i1 %6, label %95, label %7

7:                                                ; preds = %3
  %8 = getelementptr inbounds nuw i8, ptr %2, i64 9
  %9 = load i8, ptr %8, align 1, !tbaa !41
  %10 = icmp slt i8 %9, 5
  br i1 %10, label %11, label %13

11:                                               ; preds = %7
  %12 = getelementptr inbounds nuw i8, ptr %2, i64 4
  br label %20

13:                                               ; preds = %7
  %14 = getelementptr inbounds nuw i8, ptr %1, i64 32
  %15 = load ptr, ptr %14, align 8, !tbaa !69
  %16 = getelementptr inbounds nuw i8, ptr %2, i64 4
  %17 = load i32, ptr %16, align 4, !tbaa !55
  %18 = zext i32 %17 to i64
  %19 = getelementptr inbounds nuw i8, ptr %15, i64 %18
  br label %20

20:                                               ; preds = %13, %11
  %21 = phi ptr [ %12, %11 ], [ %19, %13 ]
  switch i8 %9, label %37 [
    i8 3, label %22
    i8 2, label %27
    i8 1, label %33
  ]

22:                                               ; preds = %20
  %23 = getelementptr inbounds nuw i8, ptr %21, i64 1
  %24 = load i8, ptr %21, align 1, !tbaa !55
  %25 = zext i8 %24 to i32
  %26 = shl nuw nsw i32 %25, 16
  br label %27

27:                                               ; preds = %22, %20
  %.048 = phi ptr [ %21, %20 ], [ %23, %22 ]
  %.047 = phi i32 [ 0, %20 ], [ %26, %22 ]
  %28 = getelementptr inbounds nuw i8, ptr %.048, i64 1
  %29 = load i8, ptr %.048, align 1, !tbaa !55
  %30 = zext i8 %29 to i32
  %31 = shl nuw nsw i32 %30, 8
  %32 = or disjoint i32 %31, %.047
  br label %33

33:                                               ; preds = %27, %20
  %.149 = phi ptr [ %21, %20 ], [ %28, %27 ]
  %.1 = phi i32 [ 0, %20 ], [ %32, %27 ]
  %34 = load i8, ptr %.149, align 1, !tbaa !55
  %35 = zext i8 %34 to i32
  %36 = or i32 %.1, %35
  br label %47

37:                                               ; preds = %20
  %38 = getelementptr inbounds nuw i8, ptr %0, i64 72
  %39 = load ptr, ptr %38, align 8, !tbaa !22
  %40 = tail call i32 @utm_countItems(ptr noundef %39) #15
  %41 = load ptr, ptr %38, align 8, !tbaa !22
  %42 = load i8, ptr %8, align 1, !tbaa !41
  %43 = sext i8 %42 to i32
  %44 = tail call ptr @utm_allocN(ptr noundef %41, i32 noundef %43) #15
  %45 = load i8, ptr %8, align 1, !tbaa !41
  %46 = sext i8 %45 to i64
  tail call void @llvm.memcpy.p0.p0.i64(ptr align 1 %44, ptr align 1 %21, i64 %46, i1 false)
  %.pre = load i8, ptr %8, align 1, !tbaa !41
  %.pre53 = load i8, ptr %4, align 2, !tbaa !36
  br label %47

47:                                               ; preds = %37, %33
  %48 = phi i8 [ %.pre53, %37 ], [ %5, %33 ]
  %49 = phi i8 [ %.pre, %37 ], [ %9, %33 ]
  %.2 = phi i32 [ %40, %37 ], [ %36, %33 ]
  %50 = sext i8 %49 to i32
  %51 = shl nsw i32 %50, 24
  %52 = or i32 %51, %.2
  switch i8 %48, label %57 [
    i8 0, label %53
    i8 4, label %55
  ]

53:                                               ; preds = %47
  %54 = or i32 %52, -2147483648
  br label %57

55:                                               ; preds = %47
  %56 = or i32 %52, 1073741824
  br label %57

57:                                               ; preds = %47, %55, %53
  %.3 = phi i32 [ %54, %53 ], [ %56, %55 ], [ %52, %47 ]
  %58 = getelementptr inbounds nuw i8, ptr %2, i64 8
  %59 = load i8, ptr %58, align 4, !tbaa !42
  %60 = icmp eq i8 %59, 1
  br i1 %60, label %61, label %65

61:                                               ; preds = %57
  %62 = load i32, ptr %2, align 4, !tbaa !44
  %63 = icmp ult i32 %62, 65536
  %64 = select i1 %63, i32 1, i32 2
  br label %77

65:                                               ; preds = %57
  %66 = getelementptr inbounds nuw i8, ptr %1, i64 16
  %67 = load ptr, ptr %66, align 8, !tbaa !43
  %68 = load i32, ptr %2, align 4, !tbaa !44
  %69 = sext i32 %68 to i64
  %70 = getelementptr inbounds i32, ptr %67, i64 %69
  %71 = load i32, ptr %70, align 4, !tbaa !35
  %72 = icmp ult i32 %71, 65536
  %73 = select i1 %72, i32 1, i32 2
  %74 = sext i8 %59 to i32
  %75 = add nsw i32 %74, -2
  %76 = add nsw i32 %75, %73
  br label %77

77:                                               ; preds = %65, %61
  %.046 = phi i32 [ %64, %61 ], [ %76, %65 ]
  %78 = getelementptr inbounds nuw i8, ptr %0, i64 917616
  %79 = load i32, ptr %78, align 8, !tbaa !62
  %80 = icmp sgt i32 %.046, %79
  br i1 %80, label %81, label %82

81:                                               ; preds = %77
  store i32 %.046, ptr %78, align 8, !tbaa !62
  br label %82

82:                                               ; preds = %81, %77
  %83 = getelementptr inbounds nuw i8, ptr %0, i64 917608
  %84 = load i32, ptr %83, align 8, !tbaa !60
  %85 = icmp slt i32 %84, %50
  br i1 %85, label %86, label %87

86:                                               ; preds = %82
  store i32 %50, ptr %83, align 8, !tbaa !60
  br label %87

87:                                               ; preds = %86, %82
  %88 = add nsw i32 %50, 65535
  %89 = add nsw i32 %88, %.046
  %.lhs.trunc = trunc i32 %89 to i16
  %.rhs.trunc = trunc nsw i32 %.046 to i16
  %90 = sdiv i16 %.lhs.trunc, %.rhs.trunc
  %.sext = sext i16 %90 to i32
  %91 = getelementptr inbounds nuw i8, ptr %0, i64 917612
  %92 = load i32, ptr %91, align 4, !tbaa !61
  %93 = icmp slt i32 %92, %.sext
  br i1 %93, label %94, label %95

94:                                               ; preds = %87
  store i32 %.sext, ptr %91, align 4, !tbaa !61
  br label %95

95:                                               ; preds = %87, %94, %3
  %.0 = phi i32 [ -2147483647, %3 ], [ %.3, %94 ], [ %.3, %87 ]
  ret i32 %.0
}